; Function Attrs: null_pointer_is_valid sspstrong uwtable
define ptr @get_conversation_address(ptr noundef %0, ptr noundef %1, i1 noundef zeroext %2) local_unnamed_addr #1 {
  br i1 %2, label %4, label %6

4:                                                ; preds = %3
  %5 = tail call ptr @address_to_display(ptr noundef %0, ptr noundef %1)
  br label %8

6:                                                ; preds = %3
  %7 = tail call ptr @address_to_str(ptr noundef %0, ptr noundef %1)
  br label %8

8:                                                ; preds = %6, %4
  %.0 = phi ptr [ %5, %4 ], [ %7, %6 ]
  ret ptr %.0
}